target datalayout = "e-m:e-p270:32:32-p271:32:32-p272:64:64-i64:64-i128:128-f80:128-n8:16:32:64-S128"
target triple = "x86_64-pc-linux-gnu"

%struct.DeviceInformation = type <{ i32, i32, i32, [4 x i8], %"class.gmx::FixedCapacityVector", i32, %"class.std::optional", [3 x i8] }>
%"class.gmx::FixedCapacityVector" = type { %"struct.std::array", i64 }
%"struct.std::array" = type { [10 x i32] }
%"class.std::optional" = type { %"struct.std::_Optional_base" }
%"struct.std::_Optional_base" = type { %"struct.std::_Optional_payload" }
%"struct.std::_Optional_payload" = type { %"struct.std::_Optional_payload_base" }
%"struct.std::_Optional_payload_base" = type { %"union.std::_Optional_payload_base<std::array<std::byte, 16>>::_Storage", i8 }
%"union.std::_Optional_payload_base<std::array<std::byte, 16>>::_Storage" = type { %"struct.std::array.0" }
%"struct.std::array.0" = type { [16 x i8] }
%"struct.(anonymous namespace)::HashAnArray" = type { i8 }
%"struct.std::hash" = type { i8 }
%"struct.std::hash.35" = type { i8 }

@_ZTVSt9exception = available_externally unnamed_addr constant { [5 x ptr] } { [5 x ptr] [ptr null, ptr @_ZTISt9exception, ptr @_ZNSt9exceptionD1Ev, ptr @_ZNSt9exceptionD0Ev, ptr @_ZNKSt9exception4whatEv] }, align 8
@_ZTISt19bad_optional_access = linkonce_odr constant { ptr, ptr, ptr } { ptr getelementptr inbounds (ptr, ptr @_ZTVN10__cxxabiv120__si_class_type_infoE, i64 2), ptr @_ZTSSt19bad_optional_access, ptr @_ZTISt9exception }, comdat, align 8
@_ZTVSt19bad_optional_access = linkonce_odr unnamed_addr constant { [5 x ptr] } { [5 x ptr] [ptr null, ptr @_ZTISt19bad_optional_access, ptr @_ZNSt9exceptionD2Ev, ptr @_ZNSt19bad_optional_accessD0Ev, ptr @_ZNKSt19bad_optional_access4whatEv] }, comdat, align 8

; Function Attrs: mustprogress nounwind uwtable
define linkonce_odr noundef i64 @_ZNKSt4hashIhEclEh(ptr noundef nonnull align 1 dereferenceable(1) %0, i8 noundef zeroext %1) #1 comdat align 2 {
  %3 = alloca ptr, align 8
  %4 = alloca i8, align 1
  store ptr %0, ptr %3, align 8, !tbaa !295
  store i8 %1, ptr %4, align 1, !tbaa !199
  %5 = load i8, ptr %4, align 1, !tbaa !199
  %6 = zext i8 %5 to i64
  ret i64 %6
}

; Function Attrs: mustprogress nounwind uwtable
define linkonce_odr noundef ptr @_ZNSt14__array_traitsISt4byteLm16EE6_S_ptrERA16_KS0_(ptr noundef nonnull align 1 dereferenceable(16) %0) #1 comdat align 2 {
  %2 = alloca ptr, align 8
  store ptr %0, ptr %2, align 8, !tbaa !60
  %3 = load ptr, ptr %2, align 8, !tbaa !60
  %4 = getelementptr inbounds [16 x i8], ptr %3, i64 0, i64 0
  ret ptr %4
}

; Function Attrs: mustprogress nounwind uwtable
define linkonce_odr void @_ZNSt9exceptionC2Ev(ptr noundef nonnull align 8 dereferenceable(8) %0) unnamed_addr #1 comdat align 2 {
  %2 = alloca ptr, align 8
  store ptr %0, ptr %2, align 8, !tbaa !169
  %3 = load ptr, ptr %2, align 8
  store ptr getelementptr inbounds inrange(-16, 24) ({ [5 x ptr] }, ptr @_ZTVSt9exception, i32 0, i32 0, i32 2), ptr %3, align 8, !tbaa !124
  ret void
}

; Function Attrs: mustprogress nounwind uwtable
define linkonce_odr noundef i64 @_ZNKSt11__hash_enumISt4byteLb1EEclES0_(ptr noundef nonnull align 1 dereferenceable(1) %0, i8 noundef zeroext %1) #1 comdat align 2 {
  %3 = alloca ptr, align 8
  %4 = alloca i8, align 1
  %5 = alloca %"struct.std::hash.35", align 1
  store ptr %0, ptr %3, align 8, !tbaa !293
  store i8 %1, ptr %4, align 1, !tbaa !199
  call void @llvm.lifetime.start.p0(i64 1, ptr %5) #20
  %6 = load i8, ptr %4, align 1, !tbaa !199
  %7 = call noundef i64 @_ZNKSt4hashIhEclEh(ptr noundef nonnull align 1 dereferenceable(1) %5, i8 noundef zeroext %6) #20
  call void @llvm.lifetime.end.p0(i64 1, ptr %5) #20
  ret i64 %7
}

; Function Attrs: mustprogress nounwind uwtable
define linkonce_odr noundef ptr @_ZNKSt5arrayISt4byteLm16EE4dataEv(ptr noundef nonnull align 1 dereferenceable(16) %0) #1 comdat align 2 {
  %2 = alloca ptr, align 8
  store ptr %0, ptr %2, align 8, !tbaa !289
  %3 = load ptr, ptr %2, align 8
  %4 = getelementptr inbounds nuw %"struct.std::array.0", ptr %3, i32 0, i32 0
  %5 = call noundef ptr @_ZNSt14__array_traitsISt4byteLm16EE6_S_ptrERA16_KS0_(ptr noundef nonnull align 1 dereferenceable(16) %4) #20
  ret ptr %5
}

; Function Attrs: mustprogress nounwind uwtable
define linkonce_odr void @_ZNSt19bad_optional_accessC2Ev(ptr noundef nonnull align 8 dereferenceable(8) %0) unnamed_addr #1 comdat align 2 {
  %2 = alloca ptr, align 8
  store ptr %0, ptr %2, align 8, !tbaa !297
  %3 = load ptr, ptr %2, align 8
  call void @_ZNSt9exceptionC2Ev(ptr noundef nonnull align 8 dereferenceable(8) %3) #20
  store ptr getelementptr inbounds inrange(-16, 24) ({ [5 x ptr] }, ptr @_ZTVSt19bad_optional_access, i32 0, i32 0, i32 2), ptr %3, align 8, !tbaa !124
  ret void
}

; Function Attrs: mustprogress nounwind uwtable
define linkonce_odr noundef nonnull align 1 dereferenceable(16) ptr @_ZNKSt22_Optional_payload_baseISt5arrayISt4byteLm16EEE6_M_getEv(ptr noundef nonnull align 1 dereferenceable(17) %0) #1 comdat align 2 {
  %2 = alloca ptr, align 8
  store ptr %0, ptr %2, align 8, !tbaa !280
  %3 = load ptr, ptr %2, align 8
  %4 = getelementptr inbounds nuw %"struct.std::_Optional_payload_base", ptr %3, i32 0, i32 0
  ret ptr %4
}

; Function Attrs: noinline noreturn nounwind uwtable
define linkonce_odr hidden void @__clang_call_terminate(ptr noundef %0) #7 comdat {
  %2 = call ptr @__cxa_begin_catch(ptr %0) #20
  call void @_ZSt9terminatev() #22
  unreachable
}

; Function Attrs: mustprogress nounwind uwtable
define internal noundef i64 @_ZN12_GLOBAL__N_111hashCombineEmSt4byte(i64 noundef %0, i8 noundef zeroext %1) #1 {
  %3 = alloca i64, align 8
  %4 = alloca i8, align 1
  %5 = alloca %"struct.std::hash", align 1
  store i64 %0, ptr %3, align 8, !tbaa !34
  store i8 %1, ptr %4, align 1, !tbaa !199
  %6 = load i64, ptr %3, align 8, !tbaa !34
  call void @llvm.lifetime.start.p0(i64 1, ptr %5) #20
  %7 = load i8, ptr %4, align 1, !tbaa !199
  %8 = call noundef i64 @_ZNKSt11__hash_enumISt4byteLb1EEclES0_(ptr noundef nonnull align 1 dereferenceable(1) %5, i8 noundef zeroext %7) #20
  %9 = add i64 %8, 2654435769
  %10 = load i64, ptr %3, align 8, !tbaa !34
  %11 = shl i64 %10, 6
  %12 = add i64 %9, %11
  %13 = load i64, ptr %3, align 8, !tbaa !34
  %14 = lshr i64 %13, 2
  %15 = add i64 %12, %14
  %16 = xor i64 %6, %15
  call void @llvm.lifetime.end.p0(i64 1, ptr %5) #20
  ret i64 %16
}

; Function Attrs: mustprogress nounwind uwtable
define linkonce_odr noundef ptr @_ZNKSt5arrayISt4byteLm16EE3endEv(ptr noundef nonnull align 1 dereferenceable(16) %0) #1 comdat align 2 {
  %2 = alloca ptr, align 8
  store ptr %0, ptr %2, align 8, !tbaa !289
  %3 = load ptr, ptr %2, align 8
  %4 = call noundef ptr @_ZNKSt5arrayISt4byteLm16EE4dataEv(ptr noundef nonnull align 1 dereferenceable(16) %3) #20
  %5 = getelementptr inbounds nuw i8, ptr %4, i64 16
  ret ptr %5
}

; Function Attrs: mustprogress nounwind uwtable
define linkonce_odr noundef ptr @_ZNKSt5arrayISt4byteLm16EE5beginEv(ptr noundef nonnull align 1 dereferenceable(16) %0) #1 comdat align 2 {
  %2 = alloca ptr, align 8
  store ptr %0, ptr %2, align 8, !tbaa !289
  %3 = load ptr, ptr %2, align 8
  %4 = call noundef ptr @_ZNKSt5arrayISt4byteLm16EE4dataEv(ptr noundef nonnull align 1 dereferenceable(16) %3) #20
  ret ptr %4
}

; Function Attrs: inlinehint mustprogress noreturn uwtable
define linkonce_odr void @_ZSt27__throw_bad_optional_accessv() #18 comdat {
  %1 = call ptr @__cxa_allocate_exception(i64 8) #20
  call void @llvm.memset.p0.i64(ptr align 16 %1, i8 0, i64 8, i1 false)
  call void @_ZNSt19bad_optional_accessC2Ev(ptr noundef nonnull align 8 dereferenceable(8) %1) #20
  call void @__cxa_throw(ptr %1, ptr @_ZTISt19bad_optional_access, ptr @_ZNSt9exceptionD2Ev) #21
  unreachable
}

; Function Attrs: mustprogress nounwind uwtable
define linkonce_odr noundef nonnull align 1 dereferenceable(16) ptr @_ZNKSt19_Optional_base_implISt5arrayISt4byteLm16EESt14_Optional_baseIS2_Lb1ELb1EEE6_M_getEv(ptr noundef nonnull align 1 dereferenceable(1) %0) #1 comdat align 2 {
  %2 = alloca ptr, align 8
  store ptr %0, ptr %2, align 8, !tbaa !291
  %3 = load ptr, ptr %2, align 8
  br label %4

4:                                                ; preds = %1
  br label %5

5:                                                ; preds = %4
  br label %6

6:                                                ; preds = %5
  %7 = getelementptr inbounds nuw %"struct.std::_Optional_base", ptr %3, i32 0, i32 0
  %8 = call noundef nonnull align 1 dereferenceable(16) ptr @_ZNKSt22_Optional_payload_baseISt5arrayISt4byteLm16EEE6_M_getEv(ptr noundef nonnull align 1 dereferenceable(17) %7) #20
  ret ptr %8
}

; Function Attrs: mustprogress nounwind uwtable
define linkonce_odr noundef zeroext i1 @_ZNKSt19_Optional_base_implISt5arrayISt4byteLm16EESt14_Optional_baseIS2_Lb1ELb1EEE13_M_is_engagedEv(ptr noundef nonnull align 1 dereferenceable(1) %0) #1 comdat align 2 {
  %2 = alloca ptr, align 8
  store ptr %0, ptr %2, align 8, !tbaa !291
  %3 = load ptr, ptr %2, align 8
  %4 = getelementptr inbounds nuw %"struct.std::_Optional_base", ptr %3, i32 0, i32 0
  %5 = getelementptr inbounds nuw %"struct.std::_Optional_payload_base", ptr %4, i32 0, i32 1
  %6 = load i8, ptr %5, align 1, !tbaa !282, !range !232, !noundef !233
  %7 = trunc i8 %6 to i1
  ret i1 %7
}

; Function Attrs: mustprogress nounwind uwtable
define internal noundef i64 @_ZNK12_GLOBAL__N_111HashAnArrayclILm16EEEmRKSt5arrayISt4byteXT_EE(ptr noundef nonnull align 1 dereferenceable(1) %0, ptr noundef nonnull align 1 dereferenceable(16) %1) #1 align 2 personality ptr @__gxx_personality_v0 {
  %3 = alloca ptr, align 8
  %4 = alloca ptr, align 8
  %5 = alloca i64, align 8
  %6 = alloca ptr, align 8
  %7 = alloca ptr, align 8
  %8 = alloca ptr, align 8
  %9 = alloca ptr, align 8
  store ptr %0, ptr %3, align 8, !tbaa !287
  store ptr %1, ptr %4, align 8, !tbaa !289
  call void @llvm.lifetime.start.p0(i64 8, ptr %5) #20
  store i64 0, ptr %5, align 8, !tbaa !34
  call void @llvm.lifetime.start.p0(i64 8, ptr %6) #20
  %10 = load ptr, ptr %4, align 8, !tbaa !289
  store ptr %10, ptr %6, align 8, !tbaa !289
  call void @llvm.lifetime.start.p0(i64 8, ptr %7) #20
  %11 = load ptr, ptr %6, align 8, !tbaa !289
  %12 = call noundef ptr @_ZNKSt5arrayISt4byteLm16EE5beginEv(ptr noundef nonnull align 1 dereferenceable(16) %11) #20
  store ptr %12, ptr %7, align 8, !tbaa !60
  call void @llvm.lifetime.start.p0(i64 8, ptr %8) #20
  %13 = load ptr, ptr %6, align 8, !tbaa !289
  %14 = call noundef ptr @_ZNKSt5arrayISt4byteLm16EE3endEv(ptr noundef nonnull align 1 dereferenceable(16) %13) #20
  store ptr %14, ptr %8, align 8, !tbaa !60
  br label %15

15:                                               ; preds = %27, %2
  %16 = load ptr, ptr %7, align 8, !tbaa !60
  %17 = load ptr, ptr %8, align 8, !tbaa !60
  %18 = icmp ne ptr %16, %17
  br i1 %18, label %20, label %19

19:                                               ; preds = %15
  call void @llvm.lifetime.end.p0(i64 8, ptr %8) #20
  call void @llvm.lifetime.end.p0(i64 8, ptr %7) #20
  call void @llvm.lifetime.end.p0(i64 8, ptr %6) #20
  br label %30

20:                                               ; preds = %15
  call void @llvm.lifetime.start.p0(i64 8, ptr %9) #20
  %21 = load ptr, ptr %7, align 8, !tbaa !60
  store ptr %21, ptr %9, align 8, !tbaa !60
  %22 = load i64, ptr %5, align 8, !tbaa !34
  %23 = load ptr, ptr %9, align 8, !tbaa !60
  %24 = load i8, ptr %23, align 1, !tbaa !199
  %25 = invoke noundef i64 @_ZN12_GLOBAL__N_111hashCombineEmSt4byte(i64 noundef %22, i8 noundef zeroext %24)
          to label %26 unwind label %32

26:                                               ; preds = %20
  store i64 %25, ptr %5, align 8, !tbaa !34
  call void @llvm.lifetime.end.p0(i64 8, ptr %9) #20
  br label %27

27:                                               ; preds = %26
  %28 = load ptr, ptr %7, align 8, !tbaa !60
  %29 = getelementptr inbounds nuw i8, ptr %28, i32 1
  store ptr %29, ptr %7, align 8, !tbaa !60
  br label %15

30:                                               ; preds = %19
  %31 = load i64, ptr %5, align 8, !tbaa !34
  call void @llvm.lifetime.end.p0(i64 8, ptr %5) #20
  ret i64 %31

32:                                               ; preds = %20
  %33 = landingpad { ptr, i32 }
          catch ptr null
  %34 = extractvalue { ptr, i32 } %33, 0
  call void @__clang_call_terminate(ptr %34) #22
  unreachable
}

; Function Attrs: mustprogress uwtable
define linkonce_odr noundef nonnull align 1 dereferenceable(16) ptr @_ZNKRSt8optionalISt5arrayISt4byteLm16EEE5valueEv(ptr noundef nonnull align 1 dereferenceable(17) %0) #0 comdat align 2 {
  %2 = alloca ptr, align 8
  store ptr %0, ptr %2, align 8, !tbaa !270
  %3 = load ptr, ptr %2, align 8
  %4 = call noundef zeroext i1 @_ZNKSt19_Optional_base_implISt5arrayISt4byteLm16EESt14_Optional_baseIS2_Lb1ELb1EEE13_M_is_engagedEv(ptr noundef nonnull align 1 dereferenceable(1) %3) #20
  br i1 %4, label %5, label %7

5:                                                ; preds = %1
  %6 = call noundef nonnull align 1 dereferenceable(16) ptr @_ZNKSt19_Optional_base_implISt5arrayISt4byteLm16EESt14_Optional_baseIS2_Lb1ELb1EEE6_M_getEv(ptr noundef nonnull align 1 dereferenceable(1) %3) #20
  ret ptr %6

7:                                                ; preds = %1
  call void @_ZSt27__throw_bad_optional_accessv() #21
  unreachable
}

; Function Attrs: mustprogress nounwind uwtable
define linkonce_odr noundef zeroext i1 @_ZNKSt8optionalISt5arrayISt4byteLm16EEE9has_valueEv(ptr noundef nonnull align 1 dereferenceable(17) %0) #1 comdat align 2 {
  %2 = alloca ptr, align 8
  store ptr %0, ptr %2, align 8, !tbaa !270
  %3 = load ptr, ptr %2, align 8
  %4 = call noundef zeroext i1 @_ZNKSt19_Optional_base_implISt5arrayISt4byteLm16EESt14_Optional_baseIS2_Lb1ELb1EEE13_M_is_engagedEv(ptr noundef nonnull align 1 dereferenceable(1) %3) #20
  ret i1 %4
}

; Function Attrs: mustprogress uwtable
define noundef i32 @_Z14uniqueDeviceIdRK17DeviceInformation(ptr noundef nonnull align 8 dereferenceable(85) %0) #0 {
  %2 = alloca i32, align 4
  %3 = alloca ptr, align 8
  %4 = alloca %"struct.(anonymous namespace)::HashAnArray", align 1
  %5 = alloca i64, align 8
  %6 = alloca i64, align 8
  store ptr %0, ptr %3, align 8, !tbaa !11
  %7 = load ptr, ptr %3, align 8, !tbaa !11
  %8 = getelementptr inbounds nuw %struct.DeviceInformation, ptr %7, i32 0, i32 6
  %9 = call noundef zeroext i1 @_ZNKSt8optionalISt5arrayISt4byteLm16EEE9has_valueEv(ptr noundef nonnull align 1 dereferenceable(17) %8) #20
  br i1 %9, label %10, label %19

10:                                               ; preds = %1
  call void @llvm.lifetime.start.p0(i64 1, ptr %4) #20
  call void @llvm.lifetime.start.p0(i64 8, ptr %5) #20
  %11 = load ptr, ptr %3, align 8, !tbaa !11
  %12 = getelementptr inbounds nuw %struct.DeviceInformation, ptr %11, i32 0, i32 6
  %13 = call noundef nonnull align 1 dereferenceable(16) ptr @_ZNKRSt8optionalISt5arrayISt4byteLm16EEE5valueEv(ptr noundef nonnull align 1 dereferenceable(17) %12)
  %14 = call noundef i64 @_ZNK12_GLOBAL__N_111HashAnArrayclILm16EEEmRKSt5arrayISt4byteXT_EE(ptr noundef nonnull align 1 dereferenceable(1) %4, ptr noundef nonnull align 1 dereferenceable(16) %13) #20
  store i64 %14, ptr %5, align 8, !tbaa !34
  call void @llvm.lifetime.start.p0(i64 8, ptr %6) #20
  store i64 2147483647, ptr %6, align 8, !tbaa !34
  %15 = load i64, ptr %5, align 8, !tbaa !34
  %16 = load i64, ptr %6, align 8, !tbaa !34
  %17 = and i64 %15, %16
  %18 = trunc i64 %17 to i32
  store i32 %18, ptr %2, align 4
  call void @llvm.lifetime.end.p0(i64 8, ptr %6) #20
  call void @llvm.lifetime.end.p0(i64 8, ptr %5) #20
  call void @llvm.lifetime.end.p0(i64 1, ptr %4) #20
  br label %23

19:                                               ; preds = %1
  %20 = load ptr, ptr %3, align 8, !tbaa !11
  %21 = getelementptr inbounds nuw %struct.DeviceInformation, ptr %20, i32 0, i32 1
  %22 = load i32, ptr %21, align 4, !tbaa !138
  store i32 %22, ptr %2, align 4
  br label %23

23:                                               ; preds = %19, %10
  %24 = load i32, ptr %2, align 4
  ret i32 %24
}