; Function Attrs: mustprogress nofree norecurse nosync nounwind willreturn memory(argmem: read) uwtable
define noundef i32 @_Z14uniqueDeviceIdRK17DeviceInformation(ptr noundef nonnull readonly align 8 captures(none) dereferenceable(85) %0) local_unnamed_addr #3 personality ptr @__gxx_personality_v0 {
  %2 = getelementptr inbounds nuw i8, ptr %0, i64 68
  %3 = getelementptr inbounds nuw i8, ptr %0, i64 84
  %4 = load i8, ptr %3, align 4, !tbaa !95, !range !96, !noundef !97
  %5 = trunc nuw i8 %4 to i1
  br i1 %5, label %_ZNKRSt8optionalISt5arrayISt4byteLm16EEE5valueEv.exit, label %16

_ZNKRSt8optionalISt5arrayISt4byteLm16EEE5valueEv.exit: ; preds = %1, %_ZNKRSt8optionalISt5arrayISt4byteLm16EEE5valueEv.exit
  %.02.i = phi i64 [ %13, %_ZNKRSt8optionalISt5arrayISt4byteLm16EEE5valueEv.exit ], [ 0, %1 ]
  %.09.idx1.i = phi i64 [ %.09.add.i, %_ZNKRSt8optionalISt5arrayISt4byteLm16EEE5valueEv.exit ], [ 0, %1 ]
  %.09.ptr.i = getelementptr inbounds nuw i8, ptr %2, i64 %.09.idx1.i
  %6 = load i8, ptr %.09.ptr.i, align 1, !tbaa !57
  %7 = zext i8 %6 to i64
  %8 = shl i64 %.02.i, 6
  %9 = lshr i64 %.02.i, 2
  %10 = add i64 %8, 2654435769
  %11 = add i64 %10, %9
  %12 = add i64 %11, %7
  %13 = xor i64 %12, %.02.i
  %.09.add.i = add nuw nsw i64 %.09.idx1.i, 1
  %.not.i = icmp eq i64 %.09.add.i, 16
  br i1 %.not.i, label %_ZNK12_GLOBAL__N_111HashAnArrayclILm16EEEmRKSt5arrayISt4byteXT_EE.exit, label %_ZNKRSt8optionalISt5arrayISt4byteLm16EEE5valueEv.exit

_ZNK12_GLOBAL__N_111HashAnArrayclILm16EEEmRKSt5arrayISt4byteXT_EE.exit: ; preds = %_ZNKRSt8optionalISt5arrayISt4byteLm16EEE5valueEv.exit
  %14 = trunc i64 %13 to i32
  %15 = and i32 %14, 2147483647
  br label %19

16:                                               ; preds = %1
  %17 = getelementptr inbounds nuw i8, ptr %0, i64 4
  %18 = load i32, ptr %17, align 4, !tbaa !48
  br label %19

19:                                               ; preds = %16, %_ZNK12_GLOBAL__N_111HashAnArrayclILm16EEEmRKSt5arrayISt4byteXT_EE.exit
  %.0 = phi i32 [ %15, %_ZNK12_GLOBAL__N_111HashAnArrayclILm16EEEmRKSt5arrayISt4byteXT_EE.exit ], [ %18, %16 ]
  ret i32 %.0
}